; Function Attrs: mustprogress uwtable
define void @_ZN7rocksdb12AllocTracker7FreeMemEv(ptr noundef nonnull align 8 captures(none) dereferenceable(18) %0) local_unnamed_addr #2 align 2 personality ptr @__gxx_personality_v0 {
  %2 = getelementptr inbounds nuw i8, ptr %0, i64 16
  %3 = load i8, ptr %2, align 8, !tbaa !15, !range !17, !noundef !18
  %4 = trunc nuw i8 %3 to i1
  %.pr.pre4 = load ptr, ptr %0, align 8, !tbaa !4
  br i1 %4, label %_ZN7rocksdb12AllocTracker14DoneAllocatingEv.exit, label %5

5:                                                ; preds = %1
  %.not.i = icmp eq ptr %.pr.pre4, null
  br i1 %.not.i, label %_ZN7rocksdb12AllocTracker14DoneAllocatingEv.exit.thread, label %6

6:                                                ; preds = %5
  %7 = load atomic i64, ptr %.pr.pre4 monotonic, align 8
  %.not1.i = icmp eq i64 %7, 0
  br i1 %.not1.i, label %8, label %11

8:                                                ; preds = %6
  %9 = getelementptr inbounds nuw i8, ptr %.pr.pre4, i64 32
  %10 = load ptr, ptr %9, align 8, !tbaa !19
  %.not2.i = icmp eq ptr %10, null
  br i1 %.not2.i, label %14, label %11

11:                                               ; preds = %8, %6
  %12 = getelementptr inbounds nuw i8, ptr %0, i64 8
  %13 = load atomic i64, ptr %12 monotonic, align 8
  tail call void @_ZN7rocksdb18WriteBufferManager15ScheduleFreeMemEm(ptr noundef nonnull align 8 dereferenceable(160) %.pr.pre4, i64 noundef %13)
  %.pr.pre.pre = load ptr, ptr %0, align 8, !tbaa !4
  br label %14

14:                                               ; preds = %11, %8
  %.pr.pre = phi ptr [ %.pr.pre.pre, %11 ], [ %.pr.pre4, %8 ]
  store i8 1, ptr %2, align 8, !tbaa !15
  br label %_ZN7rocksdb12AllocTracker14DoneAllocatingEv.exit

_ZN7rocksdb12AllocTracker14DoneAllocatingEv.exit: ; preds = %14, %1
  %.pr = phi ptr [ %.pr.pre, %14 ], [ %.pr.pre4, %1 ]
  %.not = icmp eq ptr %.pr, null
  br i1 %.not, label %_ZN7rocksdb12AllocTracker14DoneAllocatingEv.exit.thread, label %15

15:                                               ; preds = %_ZN7rocksdb12AllocTracker14DoneAllocatingEv.exit
  %16 = getelementptr inbounds nuw i8, ptr %0, i64 17
  %17 = load i8, ptr %16, align 1, !tbaa !16, !range !17, !noundef !18
  %18 = trunc nuw i8 %17 to i1
  br i1 %18, label %_ZN7rocksdb12AllocTracker14DoneAllocatingEv.exit.thread, label %19

19:                                               ; preds = %15
  %20 = load atomic i64, ptr %.pr monotonic, align 8
  %.not2 = icmp eq i64 %20, 0
  br i1 %.not2, label %21, label %24

21:                                               ; preds = %19
  %22 = getelementptr inbounds nuw i8, ptr %.pr, i64 32
  %23 = load ptr, ptr %22, align 8, !tbaa !19
  %.not3 = icmp eq ptr %23, null
  br i1 %.not3, label %27, label %24

24:                                               ; preds = %21, %19
  %25 = getelementptr inbounds nuw i8, ptr %0, i64 8
  %26 = load atomic i64, ptr %25 monotonic, align 8
  tail call void @_ZN7rocksdb18WriteBufferManager7FreeMemEm(ptr noundef nonnull align 8 dereferenceable(160) %.pr, i64 noundef %26)
  br label %27

27:                                               ; preds = %21, %24
  store i8 1, ptr %16, align 1, !tbaa !16
  br label %_ZN7rocksdb12AllocTracker14DoneAllocatingEv.exit.thread

_ZN7rocksdb12AllocTracker14DoneAllocatingEv.exit.thread: ; preds = %5, %27, %15, %_ZN7rocksdb12AllocTracker14DoneAllocatingEv.exit
  ret void
}